target datalayout = "e-m:e-p270:32:32-p271:32:32-p272:64:64-i64:64-i128:128-f80:128-n8:16:32:64-S128"
target triple = "x86_64-pc-linux-gnu"

%struct.AVFilterContext = type { ptr, ptr, ptr, ptr, ptr, i32, ptr, ptr, i32, ptr, ptr, i32, i32, ptr, ptr, ptr, ptr, i32, ptr, i32, i32 }
%struct.VAAPIVPPContext = type { ptr, ptr, ptr, i32, i32, i32, ptr, ptr, %struct._VARectangle, i32, i32, i32, [10 x i32], i32, i32, ptr, ptr }
%struct._VARectangle = type { i16, i16, i16, i16 }

; Function Attrs: nounwind uwtable
define void @ff_vaapi_vpp_ctx_uninit(ptr noundef %0) #0 {
  %2 = alloca ptr, align 8
  %3 = alloca ptr, align 8
  store ptr %0, ptr %2, align 8, !tbaa !4
  call void @llvm.lifetime.start.p0(i64 8, ptr %3) #7
  %4 = load ptr, ptr %2, align 8, !tbaa !4
  %5 = getelementptr inbounds nuw %struct.AVFilterContext, ptr %4, i32 0, i32 9
  %6 = load ptr, ptr %5, align 8, !tbaa !14
  store ptr %6, ptr %3, align 8, !tbaa !25
  %7 = load ptr, ptr %3, align 8, !tbaa !25
  %8 = getelementptr inbounds nuw %struct.VAAPIVPPContext, ptr %7, i32 0, i32 3
  %9 = load i32, ptr %8, align 8, !tbaa !175
  %10 = icmp ne i32 %9, 0
  br i1 %10, label %11, label %21

11:                                               ; preds = %1
  %12 = load ptr, ptr %3, align 8, !tbaa !25
  %13 = getelementptr inbounds nuw %struct.VAAPIVPPContext, ptr %12, i32 0, i32 16
  %14 = load ptr, ptr %13, align 8, !tbaa !52
  %15 = icmp ne ptr %14, null
  br i1 %15, label %16, label %21

16:                                               ; preds = %11
  %17 = load ptr, ptr %3, align 8, !tbaa !25
  %18 = getelementptr inbounds nuw %struct.VAAPIVPPContext, ptr %17, i32 0, i32 16
  %19 = load ptr, ptr %18, align 8, !tbaa !52
  %20 = load ptr, ptr %2, align 8, !tbaa !4
  call void %19(ptr noundef %20)
  br label %21

21:                                               ; preds = %16, %11, %1
  %22 = load ptr, ptr %3, align 8, !tbaa !25
  %23 = getelementptr inbounds nuw %struct.VAAPIVPPContext, ptr %22, i32 0, i32 6
  call void @av_buffer_unref(ptr noundef %23)
  %24 = load ptr, ptr %3, align 8, !tbaa !25
  %25 = getelementptr inbounds nuw %struct.VAAPIVPPContext, ptr %24, i32 0, i32 2
  call void @av_buffer_unref(ptr noundef %25)
  call void @llvm.lifetime.end.p0(i64 8, ptr %3) #7
  ret void
}