; Function Attrs: nounwind uwtable
define void @ff_vaapi_vpp_ctx_uninit(ptr noundef %0) local_unnamed_addr #0 {
  %2 = getelementptr inbounds nuw i8, ptr %0, i64 72
  %3 = load ptr, ptr %2, align 8, !tbaa !4
  %4 = getelementptr inbounds nuw i8, ptr %3, i64 24
  %5 = load i32, ptr %4, align 8, !tbaa !140
  %.not = icmp eq i32 %5, 0
  br i1 %.not, label %10, label %6

6:                                                ; preds = %1
  %7 = getelementptr inbounds nuw i8, ptr %3, i64 136
  %8 = load ptr, ptr %7, align 8, !tbaa !43
  %.not7 = icmp eq ptr %8, null
  br i1 %.not7, label %10, label %9

9:                                                ; preds = %6
  tail call void %8(ptr noundef nonnull %0) #7
  br label %10

10:                                               ; preds = %9, %6, %1
  %11 = getelementptr inbounds nuw i8, ptr %3, i64 40
  tail call void @av_buffer_unref(ptr noundef nonnull %11) #7
  %12 = getelementptr inbounds nuw i8, ptr %3, i64 16
  tail call void @av_buffer_unref(ptr noundef nonnull %12) #7
  ret void
}